target datalayout = "e-m:e-p270:32:32-p271:32:32-p272:64:64-i64:64-i128:128-f80:128-n8:16:32:64-S128"
target triple = "x86_64-pc-linux-gnu"

%struct.nghttp2_hd_context = type { %struct.nghttp2_hd_ringbuf, ptr, i64, i64, i32, i8 }
%struct.nghttp2_hd_ringbuf = type { ptr, i64, i64, i64 }
%struct.nghttp2_hd_inflater = type { %struct.nghttp2_hd_context, %struct.nghttp2_hd_huff_decode_context, %struct.nghttp2_buf, %struct.nghttp2_buf, ptr, ptr, ptr, ptr, i64, i64, i64, i64, i64, i32, i32, i8, i8, i8 }
%struct.nghttp2_hd_huff_decode_context = type { i16 }
%struct.nghttp2_buf = type { ptr, ptr, ptr, ptr, ptr }

; Function Attrs: nounwind uwtable
define internal i32 @hd_ringbuf_init(ptr noundef %0, i64 noundef %1, ptr noundef %2) #0 {
  %4 = alloca i32, align 4
  %5 = alloca ptr, align 8
  %6 = alloca i64, align 8
  %7 = alloca ptr, align 8
  %8 = alloca i64, align 8
  %9 = alloca i32, align 4
  store ptr %0, ptr %5, align 8, !tbaa !9
  store i64 %1, ptr %6, align 8, !tbaa !38
  store ptr %2, ptr %7, align 8, !tbaa !9
  call void @llvm.lifetime.start.p0(i64 8, ptr %8) #6
  store i64 1, ptr %8, align 8, !tbaa !38
  br label %10

10:                                               ; preds = %15, %3
  %11 = load i64, ptr %8, align 8, !tbaa !38
  %12 = load i64, ptr %6, align 8, !tbaa !38
  %13 = icmp ult i64 %11, %12
  br i1 %13, label %14, label %18

14:                                               ; preds = %10
  br label %15

15:                                               ; preds = %14
  %16 = load i64, ptr %8, align 8, !tbaa !38
  %17 = shl i64 %16, 1
  store i64 %17, ptr %8, align 8, !tbaa !38
  br label %10, !llvm.loop !117

18:                                               ; preds = %10
  %19 = load ptr, ptr %7, align 8, !tbaa !9
  %20 = load i64, ptr %8, align 8, !tbaa !38
  %21 = mul i64 8, %20
  %22 = call ptr @nghttp2_mem_malloc(ptr noundef %19, i64 noundef %21)
  %23 = load ptr, ptr %5, align 8, !tbaa !9
  %24 = getelementptr inbounds nuw %struct.nghttp2_hd_ringbuf, ptr %23, i32 0, i32 0
  store ptr %22, ptr %24, align 8, !tbaa !80
  %25 = load ptr, ptr %5, align 8, !tbaa !9
  %26 = getelementptr inbounds nuw %struct.nghttp2_hd_ringbuf, ptr %25, i32 0, i32 0
  %27 = load ptr, ptr %26, align 8, !tbaa !80
  %28 = icmp eq ptr %27, null
  br i1 %28, label %29, label %30

29:                                               ; preds = %18
  store i32 -901, ptr %4, align 4
  store i32 1, ptr %9, align 4
  br label %39

30:                                               ; preds = %18
  %31 = load i64, ptr %8, align 8, !tbaa !38
  %32 = sub i64 %31, 1
  %33 = load ptr, ptr %5, align 8, !tbaa !9
  %34 = getelementptr inbounds nuw %struct.nghttp2_hd_ringbuf, ptr %33, i32 0, i32 1
  store i64 %32, ptr %34, align 8, !tbaa !82
  %35 = load ptr, ptr %5, align 8, !tbaa !9
  %36 = getelementptr inbounds nuw %struct.nghttp2_hd_ringbuf, ptr %35, i32 0, i32 2
  store i64 0, ptr %36, align 8, !tbaa !81
  %37 = load ptr, ptr %5, align 8, !tbaa !9
  %38 = getelementptr inbounds nuw %struct.nghttp2_hd_ringbuf, ptr %37, i32 0, i32 3
  store i64 0, ptr %38, align 8, !tbaa !118
  store i32 0, ptr %4, align 4
  store i32 1, ptr %9, align 4
  br label %39

39:                                               ; preds = %30, %29
  call void @llvm.lifetime.end.p0(i64 8, ptr %8) #6
  %40 = load i32, ptr %4, align 4
  ret i32 %40
}

; Function Attrs: nounwind uwtable
define internal i32 @hd_context_init(ptr noundef %0, ptr noundef %1) #0 {
  %3 = alloca i32, align 4
  %4 = alloca ptr, align 8
  %5 = alloca ptr, align 8
  %6 = alloca i32, align 4
  %7 = alloca i32, align 4
  store ptr %0, ptr %4, align 8, !tbaa !9
  store ptr %1, ptr %5, align 8, !tbaa !9
  call void @llvm.lifetime.start.p0(i64 4, ptr %6) #6
  %8 = load ptr, ptr %5, align 8, !tbaa !9
  %9 = load ptr, ptr %4, align 8, !tbaa !9
  %10 = getelementptr inbounds nuw %struct.nghttp2_hd_context, ptr %9, i32 0, i32 1
  store ptr %8, ptr %10, align 8, !tbaa !48
  %11 = load ptr, ptr %4, align 8, !tbaa !9
  %12 = getelementptr inbounds nuw %struct.nghttp2_hd_context, ptr %11, i32 0, i32 5
  store i8 0, ptr %12, align 4, !tbaa !49
  %13 = load ptr, ptr %4, align 8, !tbaa !9
  %14 = getelementptr inbounds nuw %struct.nghttp2_hd_context, ptr %13, i32 0, i32 3
  store i64 4096, ptr %14, align 8, !tbaa !50
  %15 = load ptr, ptr %4, align 8, !tbaa !9
  %16 = getelementptr inbounds nuw %struct.nghttp2_hd_context, ptr %15, i32 0, i32 0
  %17 = load ptr, ptr %4, align 8, !tbaa !9
  %18 = getelementptr inbounds nuw %struct.nghttp2_hd_context, ptr %17, i32 0, i32 3
  %19 = load i64, ptr %18, align 8, !tbaa !50
  %20 = udiv i64 %19, 32
  %21 = load ptr, ptr %5, align 8, !tbaa !9
  %22 = call i32 @hd_ringbuf_init(ptr noundef %16, i64 noundef %20, ptr noundef %21)
  store i32 %22, ptr %6, align 4, !tbaa !13
  %23 = load i32, ptr %6, align 4, !tbaa !13
  %24 = icmp ne i32 %23, 0
  br i1 %24, label %25, label %27

25:                                               ; preds = %2
  %26 = load i32, ptr %6, align 4, !tbaa !13
  store i32 %26, ptr %3, align 4
  store i32 1, ptr %7, align 4
  br label %32

27:                                               ; preds = %2
  %28 = load ptr, ptr %4, align 8, !tbaa !9
  %29 = getelementptr inbounds nuw %struct.nghttp2_hd_context, ptr %28, i32 0, i32 2
  store i64 0, ptr %29, align 8, !tbaa !51
  %30 = load ptr, ptr %4, align 8, !tbaa !9
  %31 = getelementptr inbounds nuw %struct.nghttp2_hd_context, ptr %30, i32 0, i32 4
  store i32 0, ptr %31, align 8, !tbaa !52
  store i32 0, ptr %3, align 4
  store i32 1, ptr %7, align 4
  br label %32

32:                                               ; preds = %27, %25
  call void @llvm.lifetime.end.p0(i64 4, ptr %6) #6
  %33 = load i32, ptr %3, align 4
  ret i32 %33
}

; Function Attrs: nounwind uwtable
define dso_local i32 @nghttp2_hd_inflate_init(ptr noundef %0, ptr noundef %1) #0 {
  %3 = alloca i32, align 4
  %4 = alloca ptr, align 8
  %5 = alloca ptr, align 8
  %6 = alloca i32, align 4
  %7 = alloca i32, align 4
  store ptr %0, ptr %4, align 8, !tbaa !53
  store ptr %1, ptr %5, align 8, !tbaa !9
  call void @llvm.lifetime.start.p0(i64 4, ptr %6) #6
  %8 = load ptr, ptr %4, align 8, !tbaa !53
  %9 = getelementptr inbounds nuw %struct.nghttp2_hd_inflater, ptr %8, i32 0, i32 0
  %10 = load ptr, ptr %5, align 8, !tbaa !9
  %11 = call i32 @hd_context_init(ptr noundef %9, ptr noundef %10)
  store i32 %11, ptr %6, align 4, !tbaa !13
  %12 = load i32, ptr %6, align 4, !tbaa !13
  %13 = icmp ne i32 %12, 0
  br i1 %13, label %14, label %15

14:                                               ; preds = %2
  br label %48

15:                                               ; preds = %2
  %16 = load ptr, ptr %4, align 8, !tbaa !53
  %17 = getelementptr inbounds nuw %struct.nghttp2_hd_inflater, ptr %16, i32 0, i32 10
  store i64 4096, ptr %17, align 8, !tbaa !55
  %18 = load ptr, ptr %4, align 8, !tbaa !53
  %19 = getelementptr inbounds nuw %struct.nghttp2_hd_inflater, ptr %18, i32 0, i32 11
  store i64 4294967295, ptr %19, align 8, !tbaa !60
  %20 = load ptr, ptr %4, align 8, !tbaa !53
  %21 = getelementptr inbounds nuw %struct.nghttp2_hd_inflater, ptr %20, i32 0, i32 6
  store ptr null, ptr %21, align 8, !tbaa !61
  %22 = load ptr, ptr %4, align 8, !tbaa !53
  %23 = getelementptr inbounds nuw %struct.nghttp2_hd_inflater, ptr %22, i32 0, i32 7
  store ptr null, ptr %23, align 8, !tbaa !62
  %24 = load ptr, ptr %4, align 8, !tbaa !53
  %25 = getelementptr inbounds nuw %struct.nghttp2_hd_inflater, ptr %24, i32 0, i32 13
  store i32 0, ptr %25, align 8, !tbaa !63
  %26 = load ptr, ptr %4, align 8, !tbaa !53
  %27 = getelementptr inbounds nuw %struct.nghttp2_hd_inflater, ptr %26, i32 0, i32 14
  store i32 1, ptr %27, align 4, !tbaa !64
  %28 = load ptr, ptr %4, align 8, !tbaa !53
  %29 = getelementptr inbounds nuw %struct.nghttp2_hd_inflater, ptr %28, i32 0, i32 2
  call void @nghttp2_buf_init(ptr noundef %29)
  %30 = load ptr, ptr %4, align 8, !tbaa !53
  %31 = getelementptr inbounds nuw %struct.nghttp2_hd_inflater, ptr %30, i32 0, i32 3
  call void @nghttp2_buf_init(ptr noundef %31)
  %32 = load ptr, ptr %4, align 8, !tbaa !53
  %33 = getelementptr inbounds nuw %struct.nghttp2_hd_inflater, ptr %32, i32 0, i32 4
  store ptr null, ptr %33, align 8, !tbaa !65
  %34 = load ptr, ptr %4, align 8, !tbaa !53
  %35 = getelementptr inbounds nuw %struct.nghttp2_hd_inflater, ptr %34, i32 0, i32 5
  store ptr null, ptr %35, align 8, !tbaa !66
  %36 = load ptr, ptr %4, align 8, !tbaa !53
  %37 = getelementptr inbounds nuw %struct.nghttp2_hd_inflater, ptr %36, i32 0, i32 15
  store i8 0, ptr %37, align 8, !tbaa !67
  %38 = load ptr, ptr %4, align 8, !tbaa !53
  %39 = getelementptr inbounds nuw %struct.nghttp2_hd_inflater, ptr %38, i32 0, i32 9
  store i64 0, ptr %39, align 8, !tbaa !68
  %40 = load ptr, ptr %4, align 8, !tbaa !53
  %41 = getelementptr inbounds nuw %struct.nghttp2_hd_inflater, ptr %40, i32 0, i32 8
  store i64 0, ptr %41, align 8, !tbaa !69
  %42 = load ptr, ptr %4, align 8, !tbaa !53
  %43 = getelementptr inbounds nuw %struct.nghttp2_hd_inflater, ptr %42, i32 0, i32 12
  store i64 0, ptr %43, align 8, !tbaa !70
  %44 = load ptr, ptr %4, align 8, !tbaa !53
  %45 = getelementptr inbounds nuw %struct.nghttp2_hd_inflater, ptr %44, i32 0, i32 16
  store i8 0, ptr %45, align 1, !tbaa !71
  %46 = load ptr, ptr %4, align 8, !tbaa !53
  %47 = getelementptr inbounds nuw %struct.nghttp2_hd_inflater, ptr %46, i32 0, i32 17
  store i8 0, ptr %47, align 2, !tbaa !72
  store i32 0, ptr %3, align 4
  store i32 1, ptr %7, align 4
  br label %50

48:                                               ; preds = %14
  %49 = load i32, ptr %6, align 4, !tbaa !13
  store i32 %49, ptr %3, align 4
  store i32 1, ptr %7, align 4
  br label %50

50:                                               ; preds = %48, %15
  call void @llvm.lifetime.end.p0(i64 4, ptr %6) #6
  %51 = load i32, ptr %3, align 4
  ret i32 %51
}

; Function Attrs: nounwind uwtable
define dso_local i32 @nghttp2_hd_inflate_new2(ptr noundef %0, ptr noundef %1) #0 {
  %3 = alloca i32, align 4
  %4 = alloca ptr, align 8
  %5 = alloca ptr, align 8
  %6 = alloca i32, align 4
  %7 = alloca ptr, align 8
  %8 = alloca i32, align 4
  store ptr %0, ptr %4, align 8, !tbaa !110
  store ptr %1, ptr %5, align 8, !tbaa !9
  call void @llvm.lifetime.start.p0(i64 4, ptr %6) #6
  call void @llvm.lifetime.start.p0(i64 8, ptr %7) #6
  %9 = load ptr, ptr %5, align 8, !tbaa !9
  %10 = icmp eq ptr %9, null
  br i1 %10, label %11, label %13

11:                                               ; preds = %2
  %12 = call ptr @nghttp2_mem_default()
  store ptr %12, ptr %5, align 8, !tbaa !9
  br label %13

13:                                               ; preds = %11, %2
  %14 = load ptr, ptr %5, align 8, !tbaa !9
  %15 = call ptr @nghttp2_mem_malloc(ptr noundef %14, i64 noundef 240)
  store ptr %15, ptr %7, align 8, !tbaa !53
  %16 = load ptr, ptr %7, align 8, !tbaa !53
  %17 = icmp eq ptr %16, null
  br i1 %17, label %18, label %19

18:                                               ; preds = %13
  store i32 -901, ptr %3, align 4
  store i32 1, ptr %8, align 4
  br label %32

19:                                               ; preds = %13
  %20 = load ptr, ptr %7, align 8, !tbaa !53
  %21 = load ptr, ptr %5, align 8, !tbaa !9
  %22 = call i32 @nghttp2_hd_inflate_init(ptr noundef %20, ptr noundef %21)
  store i32 %22, ptr %6, align 4, !tbaa !13
  %23 = load i32, ptr %6, align 4, !tbaa !13
  %24 = icmp ne i32 %23, 0
  br i1 %24, label %25, label %29

25:                                               ; preds = %19
  %26 = load ptr, ptr %5, align 8, !tbaa !9
  %27 = load ptr, ptr %7, align 8, !tbaa !53
  call void @nghttp2_mem_free(ptr noundef %26, ptr noundef %27)
  %28 = load i32, ptr %6, align 4, !tbaa !13
  store i32 %28, ptr %3, align 4
  store i32 1, ptr %8, align 4
  br label %32

29:                                               ; preds = %19
  %30 = load ptr, ptr %7, align 8, !tbaa !53
  %31 = load ptr, ptr %4, align 8, !tbaa !110
  store ptr %30, ptr %31, align 8, !tbaa !53
  store i32 0, ptr %3, align 4
  store i32 1, ptr %8, align 4
  br label %32

32:                                               ; preds = %29, %25, %18
  call void @llvm.lifetime.end.p0(i64 8, ptr %7) #6
  call void @llvm.lifetime.end.p0(i64 4, ptr %6) #6
  %33 = load i32, ptr %3, align 4
  ret i32 %33
}